target datalayout = "e-m:e-p270:32:32-p271:32:32-p272:64:64-i64:64-i128:128-f80:128-n8:16:32:64-S128"
target triple = "x86_64-unknown-linux-gnu"

%"struct.arrow::compute::KeyColumnMetadata" = type { i8, i8, i32 }
%"struct.arrow::compute::RowTableMetadata" = type { i8, i32, i32, i32, i32, i32, %"class.std::vector", %"class.std::vector.0", %"class.std::vector.0", %"class.std::vector.0" }
%"class.std::vector" = type { %"struct.std::_Vector_base" }
%"struct.std::_Vector_base" = type { %"struct.std::_Vector_base<arrow::compute::KeyColumnMetadata, std::allocator<arrow::compute::KeyColumnMetadata>>::_Vector_impl" }
%"struct.std::_Vector_base<arrow::compute::KeyColumnMetadata, std::allocator<arrow::compute::KeyColumnMetadata>>::_Vector_impl" = type { %"struct.std::_Vector_base<arrow::compute::KeyColumnMetadata, std::allocator<arrow::compute::KeyColumnMetadata>>::_Vector_impl_data" }
%"struct.std::_Vector_base<arrow::compute::KeyColumnMetadata, std::allocator<arrow::compute::KeyColumnMetadata>>::_Vector_impl_data" = type { ptr, ptr, ptr }
%"class.std::vector.0" = type { %"struct.std::_Vector_base.1" }
%"struct.std::_Vector_base.1" = type { %"struct.std::_Vector_base<unsigned int, std::allocator<unsigned int>>::_Vector_impl" }
%"struct.std::_Vector_base<unsigned int, std::allocator<unsigned int>>::_Vector_impl" = type { %"struct.std::_Vector_base<unsigned int, std::allocator<unsigned int>>::_Vector_impl_data" }
%"struct.std::_Vector_base<unsigned int, std::allocator<unsigned int>>::_Vector_impl_data" = type { ptr, ptr, ptr }

; Function Attrs: mustprogress nounwind uwtable
define linkonce_odr noundef nonnull align 4 dereferenceable(8) ptr @_ZNKSt6vectorIN5arrow7compute17KeyColumnMetadataESaIS2_EEixEm(ptr noundef nonnull align 8 dereferenceable(24) %this, i64 noundef %__n) #0 comdat align 2 {
entry:
  %this.addr = alloca ptr, align 8
  %__n.addr = alloca i64, align 8
  store ptr %this, ptr %this.addr, align 8
  store i64 %__n, ptr %__n.addr, align 8
  %this1 = load ptr, ptr %this.addr, align 8
  %_M_impl = getelementptr inbounds %"struct.std::_Vector_base", ptr %this1, i32 0, i32 0
  %_M_start = getelementptr inbounds %"struct.std::_Vector_base<arrow::compute::KeyColumnMetadata, std::allocator<arrow::compute::KeyColumnMetadata>>::_Vector_impl_data", ptr %_M_impl, i32 0, i32 0
  %0 = load ptr, ptr %_M_start, align 8
  %1 = load i64, ptr %__n.addr, align 8
  %add.ptr = getelementptr inbounds %"struct.arrow::compute::KeyColumnMetadata", ptr %0, i64 %1
  ret ptr %add.ptr
}

; Function Attrs: mustprogress nounwind uwtable
define linkonce_odr noundef i64 @_ZNKSt6vectorIN5arrow7compute17KeyColumnMetadataESaIS2_EE4sizeEv(ptr noundef nonnull align 8 dereferenceable(24) %this) #0 comdat align 2 {
entry:
  %this.addr = alloca ptr, align 8
  store ptr %this, ptr %this.addr, align 8
  %this1 = load ptr, ptr %this.addr, align 8
  %_M_impl = getelementptr inbounds %"struct.std::_Vector_base", ptr %this1, i32 0, i32 0
  %_M_finish = getelementptr inbounds %"struct.std::_Vector_base<arrow::compute::KeyColumnMetadata, std::allocator<arrow::compute::KeyColumnMetadata>>::_Vector_impl_data", ptr %_M_impl, i32 0, i32 1
  %0 = load ptr, ptr %_M_finish, align 8
  %_M_impl2 = getelementptr inbounds %"struct.std::_Vector_base", ptr %this1, i32 0, i32 0
  %_M_start = getelementptr inbounds %"struct.std::_Vector_base<arrow::compute::KeyColumnMetadata, std::allocator<arrow::compute::KeyColumnMetadata>>::_Vector_impl_data", ptr %_M_impl2, i32 0, i32 0
  %1 = load ptr, ptr %_M_start, align 8
  %sub.ptr.lhs.cast = ptrtoint ptr %0 to i64
  %sub.ptr.rhs.cast = ptrtoint ptr %1 to i64
  %sub.ptr.sub = sub i64 %sub.ptr.lhs.cast, %sub.ptr.rhs.cast
  %sub.ptr.div = sdiv exact i64 %sub.ptr.sub, 8
  ret i64 %sub.ptr.div
}

; Function Attrs: mustprogress nounwind uwtable
define linkonce_odr noundef i32 @_ZNK5arrow7compute16RowTableMetadata8num_colsEv(ptr noundef nonnull align 8 dereferenceable(120) %this) #0 comdat align 2 {
entry:
  %this.addr = alloca ptr, align 8
  store ptr %this, ptr %this.addr, align 8
  %this1 = load ptr, ptr %this.addr, align 8
  %column_metadatas = getelementptr inbounds %"struct.arrow::compute::RowTableMetadata", ptr %this1, i32 0, i32 6
  %call = call noundef i64 @_ZNKSt6vectorIN5arrow7compute17KeyColumnMetadataESaIS2_EE4sizeEv(ptr noundef nonnull align 8 dereferenceable(24) %column_metadatas) #12
  %conv = trunc i64 %call to i32
  ret i32 %conv
}

; Function Attrs: mustprogress uwtable
define noundef zeroext i1 @_ZNK5arrow7compute16RowTableMetadata13is_compatibleERKS1_(ptr noundef nonnull align 8 dereferenceable(120) %this, ptr noundef nonnull align 8 dereferenceable(120) %other) #2 align 2 {
entry:
  %retval = alloca i1, align 1
  %this.addr = alloca ptr, align 8
  %other.addr = alloca ptr, align 8
  %i = alloca i64, align 8
  store ptr %this, ptr %this.addr, align 8
  store ptr %other, ptr %other.addr, align 8
  %this1 = load ptr, ptr %this.addr, align 8
  %0 = load ptr, ptr %other.addr, align 8
  %call = call noundef i32 @_ZNK5arrow7compute16RowTableMetadata8num_colsEv(ptr noundef nonnull align 8 dereferenceable(120) %0)
  %call2 = call noundef i32 @_ZNK5arrow7compute16RowTableMetadata8num_colsEv(ptr noundef nonnull align 8 dereferenceable(120) %this1)
  %cmp = icmp ne i32 %call, %call2
  br i1 %cmp, label %if.then, label %if.end

if.then:                                          ; preds = %entry
  store i1 false, ptr %retval, align 1
  br label %return

if.end:                                           ; preds = %entry
  %row_alignment = getelementptr inbounds %"struct.arrow::compute::RowTableMetadata", ptr %this1, i32 0, i32 4
  %1 = load i32, ptr %row_alignment, align 8
  %2 = load ptr, ptr %other.addr, align 8
  %row_alignment3 = getelementptr inbounds %"struct.arrow::compute::RowTableMetadata", ptr %2, i32 0, i32 4
  %3 = load i32, ptr %row_alignment3, align 8
  %cmp4 = icmp ne i32 %1, %3
  br i1 %cmp4, label %if.then7, label %lor.lhs.false

lor.lhs.false:                                    ; preds = %if.end
  %string_alignment = getelementptr inbounds %"struct.arrow::compute::RowTableMetadata", ptr %this1, i32 0, i32 5
  %4 = load i32, ptr %string_alignment, align 4
  %5 = load ptr, ptr %other.addr, align 8
  %string_alignment5 = getelementptr inbounds %"struct.arrow::compute::RowTableMetadata", ptr %5, i32 0, i32 5
  %6 = load i32, ptr %string_alignment5, align 4
  %cmp6 = icmp ne i32 %4, %6
  br i1 %cmp6, label %if.then7, label %if.end8

if.then7:                                         ; preds = %lor.lhs.false, %if.end
  store i1 false, ptr %retval, align 1
  br label %return

if.end8:                                          ; preds = %lor.lhs.false
  store i64 0, ptr %i, align 8
  br label %for.cond

for.cond:                                         ; preds = %for.inc, %if.end8
  %7 = load i64, ptr %i, align 8
  %column_metadatas = getelementptr inbounds %"struct.arrow::compute::RowTableMetadata", ptr %this1, i32 0, i32 6
  %call9 = call noundef i64 @_ZNKSt6vectorIN5arrow7compute17KeyColumnMetadataESaIS2_EE4sizeEv(ptr noundef nonnull align 8 dereferenceable(24) %column_metadatas) #12
  %cmp10 = icmp ult i64 %7, %call9
  br i1 %cmp10, label %for.body, label %for.end

for.body:                                         ; preds = %for.cond
  %column_metadatas11 = getelementptr inbounds %"struct.arrow::compute::RowTableMetadata", ptr %this1, i32 0, i32 6
  %8 = load i64, ptr %i, align 8
  %call12 = call noundef nonnull align 4 dereferenceable(8) ptr @_ZNKSt6vectorIN5arrow7compute17KeyColumnMetadataESaIS2_EEixEm(ptr noundef nonnull align 8 dereferenceable(24) %column_metadatas11, i64 noundef %8) #12
  %is_fixed_length = getelementptr inbounds %"struct.arrow::compute::KeyColumnMetadata", ptr %call12, i32 0, i32 0
  %9 = load i8, ptr %is_fixed_length, align 4
  %tobool = trunc i8 %9 to i1
  %conv = zext i1 %tobool to i32
  %10 = load ptr, ptr %other.addr, align 8
  %column_metadatas13 = getelementptr inbounds %"struct.arrow::compute::RowTableMetadata", ptr %10, i32 0, i32 6
  %11 = load i64, ptr %i, align 8
  %call14 = call noundef nonnull align 4 dereferenceable(8) ptr @_ZNKSt6vectorIN5arrow7compute17KeyColumnMetadataESaIS2_EEixEm(ptr noundef nonnull align 8 dereferenceable(24) %column_metadatas13, i64 noundef %11) #12
  %is_fixed_length15 = getelementptr inbounds %"struct.arrow::compute::KeyColumnMetadata", ptr %call14, i32 0, i32 0
  %12 = load i8, ptr %is_fixed_length15, align 4
  %tobool16 = trunc i8 %12 to i1
  %conv17 = zext i1 %tobool16 to i32
  %cmp18 = icmp ne i32 %conv, %conv17
  br i1 %cmp18, label %if.then19, label %if.end20

if.then19:                                        ; preds = %for.body
  store i1 false, ptr %retval, align 1
  br label %return

if.end20:                                         ; preds = %for.body
  %column_metadatas21 = getelementptr inbounds %"struct.arrow::compute::RowTableMetadata", ptr %this1, i32 0, i32 6
  %13 = load i64, ptr %i, align 8
  %call22 = call noundef nonnull align 4 dereferenceable(8) ptr @_ZNKSt6vectorIN5arrow7compute17KeyColumnMetadataESaIS2_EEixEm(ptr noundef nonnull align 8 dereferenceable(24) %column_metadatas21, i64 noundef %13) #12
  %fixed_length = getelementptr inbounds %"struct.arrow::compute::KeyColumnMetadata", ptr %call22, i32 0, i32 2
  %14 = load i32, ptr %fixed_length, align 4
  %15 = load ptr, ptr %other.addr, align 8
  %column_metadatas23 = getelementptr inbounds %"struct.arrow::compute::RowTableMetadata", ptr %15, i32 0, i32 6
  %16 = load i64, ptr %i, align 8
  %call24 = call noundef nonnull align 4 dereferenceable(8) ptr @_ZNKSt6vectorIN5arrow7compute17KeyColumnMetadataESaIS2_EEixEm(ptr noundef nonnull align 8 dereferenceable(24) %column_metadatas23, i64 noundef %16) #12
  %fixed_length25 = getelementptr inbounds %"struct.arrow::compute::KeyColumnMetadata", ptr %call24, i32 0, i32 2
  %17 = load i32, ptr %fixed_length25, align 4
  %cmp26 = icmp ne i32 %14, %17
  br i1 %cmp26, label %if.then27, label %if.end28

if.then27:                                        ; preds = %if.end20
  store i1 false, ptr %retval, align 1
  br label %return

if.end28:                                         ; preds = %if.end20
  br label %for.inc

for.inc:                                          ; preds = %if.end28
  %18 = load i64, ptr %i, align 8
  %inc = add i64 %18, 1
  store i64 %inc, ptr %i, align 8
  br label %for.cond, !llvm.loop !4

for.end:                                          ; preds = %for.cond
  store i1 true, ptr %retval, align 1
  br label %return

return:                                           ; preds = %for.end, %if.then27, %if.then19, %if.then7, %if.then
  %19 = load i1, ptr %retval, align 1
  ret i1 %19
}