; Function Attrs: mustprogress nofree norecurse nosync nounwind willreturn memory(read, inaccessiblemem: none) uwtable
define noundef zeroext i1 @_ZNK5arrow7compute16RowTableMetadata13is_compatibleERKS1_(ptr noundef nonnull readonly align 8 captures(none) dereferenceable(120) %this, ptr noundef nonnull readonly align 8 captures(none) dereferenceable(120) %other) local_unnamed_addr #0 align 2 {
entry:
  %column_metadatas.i = getelementptr inbounds nuw i8, ptr %other, i64 24
  %_M_finish.i.i = getelementptr inbounds nuw i8, ptr %other, i64 32
  %0 = load ptr, ptr %_M_finish.i.i, align 8
  %1 = load ptr, ptr %column_metadatas.i, align 8
  %sub.ptr.lhs.cast.i.i = ptrtoint ptr %0 to i64
  %sub.ptr.rhs.cast.i.i = ptrtoint ptr %1 to i64
  %sub.ptr.sub.i.i = sub i64 %sub.ptr.lhs.cast.i.i, %sub.ptr.rhs.cast.i.i
  %sub.ptr.div.i.i = lshr exact i64 %sub.ptr.sub.i.i, 3
  %conv.i = trunc i64 %sub.ptr.div.i.i to i32
  %column_metadatas.i10 = getelementptr inbounds nuw i8, ptr %this, i64 24
  %_M_finish.i.i11 = getelementptr inbounds nuw i8, ptr %this, i64 32
  %2 = load ptr, ptr %_M_finish.i.i11, align 8
  %3 = load ptr, ptr %column_metadatas.i10, align 8
  %sub.ptr.lhs.cast.i.i12 = ptrtoint ptr %2 to i64
  %sub.ptr.rhs.cast.i.i13 = ptrtoint ptr %3 to i64
  %sub.ptr.sub.i.i14 = sub i64 %sub.ptr.lhs.cast.i.i12, %sub.ptr.rhs.cast.i.i13
  %sub.ptr.div.i.i15 = lshr exact i64 %sub.ptr.sub.i.i14, 3
  %conv.i16 = trunc i64 %sub.ptr.div.i.i15 to i32
  %cmp.not = icmp eq i32 %conv.i, %conv.i16
  br i1 %cmp.not, label %if.end, label %return

if.end:                                           ; preds = %entry
  %row_alignment = getelementptr inbounds nuw i8, ptr %this, i64 16
  %4 = load i32, ptr %row_alignment, align 8
  %row_alignment3 = getelementptr inbounds nuw i8, ptr %other, i64 16
  %5 = load i32, ptr %row_alignment3, align 8
  %cmp4.not = icmp eq i32 %4, %5
  br i1 %cmp4.not, label %lor.lhs.false, label %return

lor.lhs.false:                                    ; preds = %if.end
  %string_alignment = getelementptr inbounds nuw i8, ptr %this, i64 20
  %6 = load i32, ptr %string_alignment, align 4
  %string_alignment5 = getelementptr inbounds nuw i8, ptr %other, i64 20
  %7 = load i32, ptr %string_alignment5, align 4
  %cmp6.not = icmp eq i32 %6, %7
  br i1 %cmp6.not, label %for.cond.preheader, label %return

for.cond.preheader:                               ; preds = %lor.lhs.false
  %cmp1020.not = icmp eq ptr %2, %3
  br i1 %cmp1020.not, label %return, label %for.body.preheader

for.body.preheader:                               ; preds = %for.cond.preheader
  %sub.ptr.div.i = ashr exact i64 %sub.ptr.sub.i.i14, 3
  %umax = tail call i64 @llvm.umax.i64(i64 %sub.ptr.div.i, i64 1)
  br label %for.body

for.cond:                                         ; preds = %if.end20
  %inc = add nuw i64 %i.021, 1
  %exitcond.not = icmp eq i64 %inc, %umax
  br i1 %exitcond.not, label %return, label %for.body, !llvm.loop !4

for.body:                                         ; preds = %for.body.preheader, %for.cond
  %i.021 = phi i64 [ %inc, %for.cond ], [ 0, %for.body.preheader ]
  %add.ptr.i = getelementptr inbounds %"struct.arrow::compute::KeyColumnMetadata", ptr %3, i64 %i.021
  %8 = load i8, ptr %add.ptr.i, align 4
  %add.ptr.i17 = getelementptr inbounds %"struct.arrow::compute::KeyColumnMetadata", ptr %1, i64 %i.021
  %9 = load i8, ptr %add.ptr.i17, align 4
  %10 = xor i8 %9, %8
  %11 = and i8 %10, 1
  %cmp18.not = icmp eq i8 %11, 0
  br i1 %cmp18.not, label %if.end20, label %return

if.end20:                                         ; preds = %for.body
  %fixed_length = getelementptr inbounds nuw i8, ptr %add.ptr.i, i64 4
  %12 = load i32, ptr %fixed_length, align 4
  %fixed_length25 = getelementptr inbounds nuw i8, ptr %add.ptr.i17, i64 4
  %13 = load i32, ptr %fixed_length25, align 4
  %cmp26.not = icmp eq i32 %12, %13
  br i1 %cmp26.not, label %for.cond, label %return

return:                                           ; preds = %for.body, %if.end20, %for.cond, %for.cond.preheader, %if.end, %lor.lhs.false, %entry
  %retval.0 = phi i1 [ false, %entry ], [ false, %lor.lhs.false ], [ false, %if.end ], [ true, %for.cond.preheader ], [ false, %for.body ], [ false, %if.end20 ], [ true, %for.cond ]
  ret i1 %retval.0
}